target datalayout = "e-m:e-p270:32:32-p271:32:32-p272:64:64-i64:64-i128:128-f80:128-n8:16:32:64-S128"
target triple = "x86_64-pc-linux-gnu"

%struct.lv_style_transition_dsc_t = type { ptr, ptr, ptr, i32, i32 }

; Function Attrs: inlinehint nounwind uwtable
define internal void @lv_memzero(ptr noundef %0, i64 noundef %1) #1 {
  %3 = alloca ptr, align 8
  %4 = alloca i64, align 8
  store ptr %0, ptr %3, align 8, !tbaa !3
  store i64 %1, ptr %4, align 8, !tbaa !7
  %5 = load ptr, ptr %3, align 8, !tbaa !3
  %6 = load i64, ptr %4, align 8, !tbaa !7
  call void @lv_memset(ptr noundef %5, i8 noundef zeroext 0, i64 noundef %6)
  ret void
}

; Function Attrs: nounwind uwtable
define void @lv_style_transition_dsc_init(ptr noundef %0, ptr noundef %1, ptr noundef %2, i32 noundef %3, i32 noundef %4, ptr noundef %5) #0 {
  %7 = alloca ptr, align 8
  %8 = alloca ptr, align 8
  %9 = alloca ptr, align 8
  %10 = alloca i32, align 4
  %11 = alloca i32, align 4
  %12 = alloca ptr, align 8
  store ptr %0, ptr %7, align 8, !tbaa !3
  store ptr %1, ptr %8, align 8, !tbaa !3
  store ptr %2, ptr %9, align 8, !tbaa !3
  store i32 %3, ptr %10, align 4, !tbaa !26
  store i32 %4, ptr %11, align 4, !tbaa !26
  store ptr %5, ptr %12, align 8, !tbaa !3
  %13 = load ptr, ptr %7, align 8, !tbaa !3
  call void @lv_memzero(ptr noundef %13, i64 noundef 32)
  %14 = load ptr, ptr %8, align 8, !tbaa !3
  %15 = load ptr, ptr %7, align 8, !tbaa !3
  %16 = getelementptr inbounds nuw %struct.lv_style_transition_dsc_t, ptr %15, i32 0, i32 0
  store ptr %14, ptr %16, align 8, !tbaa !38
  %17 = load ptr, ptr %9, align 8, !tbaa !3
  %18 = icmp eq ptr %17, null
  br i1 %18, label %19, label %20

19:                                               ; preds = %6
  br label %22

20:                                               ; preds = %6
  %21 = load ptr, ptr %9, align 8, !tbaa !3
  br label %22

22:                                               ; preds = %20, %19
  %23 = phi ptr [ @lv_anim_path_linear, %19 ], [ %21, %20 ]
  %24 = load ptr, ptr %7, align 8, !tbaa !3
  %25 = getelementptr inbounds nuw %struct.lv_style_transition_dsc_t, ptr %24, i32 0, i32 2
  store ptr %23, ptr %25, align 8, !tbaa !40
  %26 = load i32, ptr %10, align 4, !tbaa !26
  %27 = load ptr, ptr %7, align 8, !tbaa !3
  %28 = getelementptr inbounds nuw %struct.lv_style_transition_dsc_t, ptr %27, i32 0, i32 3
  store i32 %26, ptr %28, align 8, !tbaa !41
  %29 = load i32, ptr %11, align 4, !tbaa !26
  %30 = load ptr, ptr %7, align 8, !tbaa !3
  %31 = getelementptr inbounds nuw %struct.lv_style_transition_dsc_t, ptr %30, i32 0, i32 4
  store i32 %29, ptr %31, align 4, !tbaa !42
  %32 = load ptr, ptr %12, align 8, !tbaa !3
  %33 = load ptr, ptr %7, align 8, !tbaa !3
  %34 = getelementptr inbounds nuw %struct.lv_style_transition_dsc_t, ptr %33, i32 0, i32 1
  store ptr %32, ptr %34, align 8, !tbaa !43
  ret void
}