; Function Attrs: nounwind uwtable
define void @lv_style_transition_dsc_init(ptr noundef %0, ptr noundef %1, ptr noundef %2, i32 noundef %3, i32 noundef %4, ptr noundef %5) local_unnamed_addr #0 {
  tail call void @lv_memset(ptr noundef %0, i8 noundef zeroext 0, i64 noundef 32) #7
  store ptr %1, ptr %0, align 8, !tbaa !34
  %7 = icmp eq ptr %2, null
  %8 = select i1 %7, ptr @lv_anim_path_linear, ptr %2
  %9 = getelementptr inbounds nuw i8, ptr %0, i64 16
  store ptr %8, ptr %9, align 8, !tbaa !36
  %10 = getelementptr inbounds nuw i8, ptr %0, i64 24
  store i32 %3, ptr %10, align 8, !tbaa !37
  %11 = getelementptr inbounds nuw i8, ptr %0, i64 28
  store i32 %4, ptr %11, align 4, !tbaa !38
  %12 = getelementptr inbounds nuw i8, ptr %0, i64 8
  store ptr %5, ptr %12, align 8, !tbaa !39
  ret void
}